target datalayout = "e-m:e-p270:32:32-p271:32:32-p272:64:64-i64:64-i128:128-f80:128-n8:16:32:64-S128"
target triple = "x86_64-pc-linux-gnu"

@.str = private unnamed_addr constant [38 x i8] c"../openssl/test/helpers/quictestlib.c\00", align 1
@thread_zero = internal constant i64 0, align 8
@globtserv = internal global ptr null, align 8
@.str.31 = private unnamed_addr constant [19 x i8] c"wait_for_thread(t)\00", align 1
@shutdowndone = internal global i32 0, align 4
@.str.33 = private unnamed_addr constant [43 x i8] c"run_thread(&t, run_server_shutdown_thread)\00", align 1

; Function Attrs: nounwind uwtable
define internal i32 @wait_for_thread(i64 noundef %0) #0 {
  %2 = alloca i64, align 8
  store i64 %0, ptr %2, align 8, !tbaa !62
  %3 = load i64, ptr %2, align 8, !tbaa !62
  %4 = call i32 @pthread_join(i64 noundef %3, ptr noundef null)
  %5 = icmp eq i32 %4, 0
  %6 = zext i1 %5 to i32
  ret i32 %6
}

; Function Attrs: nounwind uwtable
define internal i32 @run_thread(ptr noundef %0, ptr noundef %1) #0 {
  %3 = alloca ptr, align 8
  %4 = alloca ptr, align 8
  store ptr %0, ptr %3, align 8, !tbaa !80
  store ptr %1, ptr %4, align 8, !tbaa !56
  %5 = load ptr, ptr %3, align 8, !tbaa !80
  %6 = load ptr, ptr %4, align 8, !tbaa !56
  %7 = call i32 @pthread_create(ptr noundef %5, ptr noundef null, ptr noundef @thread_run, ptr noundef %6) #8
  %8 = icmp eq i32 %7, 0
  %9 = zext i1 %8 to i32
  ret i32 %9
}

; Function Attrs: nounwind uwtable
define dso_local i32 @qtest_shutdown(ptr noundef %0, ptr noundef %1) #0 {
  %3 = alloca i32, align 4
  %4 = alloca ptr, align 8
  %5 = alloca ptr, align 8
  %6 = alloca i32, align 4
  %7 = alloca i32, align 4
  %8 = alloca i64, align 8
  %9 = alloca i32, align 4
  %10 = alloca i32, align 4
  %11 = alloca i32, align 4
  store ptr %0, ptr %4, align 8, !tbaa !29
  store ptr %1, ptr %5, align 8, !tbaa !31
  call void @llvm.lifetime.start.p0(i64 4, ptr %6) #8
  store i32 1, ptr %6, align 4, !tbaa !13
  call void @llvm.lifetime.start.p0(i64 4, ptr %7) #8
  store i32 0, ptr %7, align 4, !tbaa !13
  call void @llvm.lifetime.start.p0(i64 8, ptr %8) #8
  %12 = load i64, ptr @thread_zero, align 8, !tbaa !62
  store i64 %12, ptr %8, align 8, !tbaa !62
  %13 = load ptr, ptr %5, align 8, !tbaa !31
  %14 = call i32 @SSL_get_blocking_mode(ptr noundef %13)
  %15 = icmp sgt i32 %14, 0
  br i1 %15, label %16, label %25

16:                                               ; preds = %2
  %17 = load ptr, ptr %4, align 8, !tbaa !29
  store ptr %17, ptr @globtserv, align 8, !tbaa !29
  store atomic i32 0, ptr @shutdowndone seq_cst, align 4, !tbaa !77
  %18 = call i32 @run_thread(ptr noundef %8, ptr noundef @run_server_shutdown_thread)
  %19 = icmp ne i32 %18, 0
  %20 = zext i1 %19 to i32
  %21 = call i32 @test_true(ptr noundef @.str, i32 noundef 645, ptr noundef @.str.33, i32 noundef %20)
  %22 = icmp ne i32 %21, 0
  br i1 %22, label %24, label %23

23:                                               ; preds = %16
  store i32 0, ptr %3, align 4
  store i32 1, ptr %9, align 4
  br label %61

24:                                               ; preds = %16
  store i32 0, ptr %6, align 4, !tbaa !13
  br label %25

25:                                               ; preds = %24, %2
  br label %26

26:                                               ; preds = %45, %25
  call void @llvm.lifetime.start.p0(i64 4, ptr %10) #8
  %27 = load ptr, ptr %5, align 8, !tbaa !31
  %28 = call i32 @SSL_shutdown(ptr noundef %27)
  store i32 %28, ptr %10, align 4, !tbaa !13
  %29 = load i32, ptr %10, align 4, !tbaa !13
  %30 = icmp eq i32 %29, 1
  br i1 %30, label %31, label %32

31:                                               ; preds = %26
  store i32 1, ptr %7, align 4, !tbaa !13
  store i32 2, ptr %9, align 4
  br label %43

32:                                               ; preds = %26
  %33 = load i32, ptr %10, align 4, !tbaa !13
  %34 = icmp slt i32 %33, 0
  br i1 %34, label %35, label %36

35:                                               ; preds = %32
  store i32 2, ptr %9, align 4
  br label %43

36:                                               ; preds = %32
  %37 = load i32, ptr %6, align 4, !tbaa !13
  %38 = icmp ne i32 %37, 0
  br i1 %38, label %39, label %42

39:                                               ; preds = %36
  %40 = load ptr, ptr %4, align 8, !tbaa !29
  %41 = call i32 @ossl_quic_tserver_tick(ptr noundef %40)
  br label %42

42:                                               ; preds = %39, %36
  store i32 0, ptr %9, align 4
  br label %43

43:                                               ; preds = %42, %35, %31
  call void @llvm.lifetime.end.p0(i64 4, ptr %10) #8
  %44 = load i32, ptr %9, align 4
  switch i32 %44, label %63 [
    i32 0, label %45
    i32 2, label %46
  ]

45:                                               ; preds = %43
  br label %26

46:                                               ; preds = %43
  store i32 1, ptr %11, align 4, !tbaa !13
  %47 = load i32, ptr %11, align 4
  store atomic i32 %47, ptr @shutdowndone monotonic, align 4
  %48 = load i32, ptr %6, align 4, !tbaa !13
  %49 = icmp ne i32 %48, 0
  br i1 %49, label %59, label %50

50:                                               ; preds = %46
  %51 = load i64, ptr %8, align 8, !tbaa !62
  %52 = call i32 @wait_for_thread(i64 noundef %51)
  %53 = icmp ne i32 %52, 0
  %54 = zext i1 %53 to i32
  %55 = call i32 @test_true(ptr noundef @.str, i32 noundef 674, ptr noundef @.str.31, i32 noundef %54)
  %56 = icmp ne i32 %55, 0
  br i1 %56, label %58, label %57

57:                                               ; preds = %50
  store i32 0, ptr %7, align 4, !tbaa !13
  br label %58

58:                                               ; preds = %57, %50
  br label %59

59:                                               ; preds = %58, %46
  %60 = load i32, ptr %7, align 4, !tbaa !13
  store i32 %60, ptr %3, align 4
  store i32 1, ptr %9, align 4
  br label %61

61:                                               ; preds = %59, %23
  call void @llvm.lifetime.end.p0(i64 8, ptr %8) #8
  call void @llvm.lifetime.end.p0(i64 4, ptr %7) #8
  call void @llvm.lifetime.end.p0(i64 4, ptr %6) #8
  %62 = load i32, ptr %3, align 4
  ret i32 %62

63:                                               ; preds = %43
  unreachable
}